(dp0
S'slope'
p1
cnumpy.core.multiarray
scalar
p2
(cnumpy
dtype
p3
(S'f8'
p4
I0
I1
tp5
Rp6
(I3
S'<'
p7
NNNI-1
I-1
I0
tp8
bS'\x05\xa2\xfd\x1d\xa6\xf1o\xbf'
p9
tp10
Rp11
sS'comp_ret'
p12
F0.7938762626262623
s.