(dp0
S'slope'
p1
cnumpy.core.multiarray
scalar
p2
(cnumpy
dtype
p3
(S'f8'
p4
I0
I1
tp5
Rp6
(I3
S'<'
p7
NNNI-1
I-1
I0
tp8
bS'\x8b\xc2\x8dP\x1a\x06c\xbf'
p9
tp10
Rp11
sS'comp_ret'
p12
F0.8583830710797615
s.