(dp0
S'slope'
p1
cnumpy.core.multiarray
scalar
p2
(cnumpy
dtype
p3
(S'f8'
p4
I0
I1
tp5
Rp6
(I3
S'<'
p7
NNNI-1
I-1
I0
tp8
bS'6\x8a\xcb\xd9\xc1\x11i\xbf'
p9
tp10
Rp11
sS'comp_ret'
p12
F0.8364707808151899
s.