(dp0
S'slope'
p1
cnumpy.core.multiarray
scalar
p2
(cnumpy
dtype
p3
(S'f8'
p4
I0
I1
tp5
Rp6
(I3
S'<'
p7
NNNI-1
I-1
I0
tp8
bS'\xe8\xf1M\xc6\xc5\x8eZ\xbf'
p9
tp10
Rp11
sS'comp_ret'
p12
F0.9317615806076711
s.