(dp0
S'slope'
p1
cnumpy.core.multiarray
scalar
p2
(cnumpy
dtype
p3
(S'f8'
p4
I0
I1
tp5
Rp6
(I3
S'<'
p7
NNNI-1
I-1
I0
tp8
bS'\x9e\x8d\x1e.\xc0\xe66?'
p9
tp10
Rp11
sS'comp_ret'
p12
F1.0252379704829273
s.