(dp0
S'slope'
p1
cnumpy.core.multiarray
scalar
p2
(cnumpy
dtype
p3
(S'f8'
p4
I0
I1
tp5
Rp6
(I3
S'<'
p7
NNNI-1
I-1
I0
tp8
bS'\x8e\x07E\xb3\x88\xeb\xe0\xbe'
p9
tp10
Rp11
sS'comp_ret'
p12
F1.0026178010471203
s.